; Function Attrs: nounwind uwtable
define range(i32 -1, 1) i32 @H5Pset_family_offset(i64 noundef %0, i64 noundef %1) local_unnamed_addr #0 {
  %3 = alloca i64, align 8
  %4 = alloca %struct.H5CX_node_t, align 8
  store i64 %1, ptr %3, align 8, !tbaa !3
  call void @llvm.lifetime.start.p0(i64 480, ptr nonnull %4) #15
  call void @llvm.memset.p0.i64(ptr noundef nonnull align 8 dereferenceable(480) %4, i8 0, i64 480, i1 false)
  %5 = load i8, ptr @H5_libinit_g, align 1, !tbaa !16, !range !18, !noundef !19
  %6 = trunc nuw i8 %5 to i1
  %7 = load i8, ptr @H5_libterm_g, align 1, !range !18
  %8 = trunc nuw i8 %7 to i1
  %9 = select i1 %6, i1 true, i1 %8
  br i1 %9, label %17, label %10, !prof !20

10:                                               ; preds = %2
  %11 = tail call i32 @H5_init_library() #15
  %12 = icmp slt i32 %11, 0
  br i1 %12, label %13, label %._crit_edge, !prof !28

._crit_edge:                                      ; preds = %10
  %.pre = load i8, ptr @H5_libterm_g, align 1, !range !18
  br label %17

13:                                               ; preds = %10
  %14 = load i64, ptr @H5E_FUNC_g, align 8, !tbaa !3
  %15 = load i64, ptr @H5E_CANTINIT_g, align 8, !tbaa !3
  %16 = tail call i32 (ptr, ptr, i32, i64, i64, ptr, ...) @H5E_printf_stack(ptr noundef nonnull @.str.2, ptr noundef nonnull @__func__.H5Pset_family_offset, i32 noundef 1998, i64 noundef %14, i64 noundef %15, ptr noundef nonnull @.str.15) #15
  br label %.thread23

17:                                               ; preds = %._crit_edge, %2
  %18 = phi i8 [ %.pre, %._crit_edge ], [ %7, %2 ]
  %19 = load i8, ptr @H5P_init_g, align 1, !tbaa !16, !range !18, !noundef !19
  %20 = trunc nuw i8 %19 to i1
  %21 = trunc nuw i8 %18 to i1
  %22 = select i1 %20, i1 true, i1 %21
  br i1 %22, label %30, label %23, !prof !20

23:                                               ; preds = %17
  store i8 1, ptr @H5P_init_g, align 1, !tbaa !16
  %24 = tail call i32 @H5P__init_package() #15
  %25 = icmp slt i32 %24, 0
  br i1 %25, label %26, label %30, !prof !29

26:                                               ; preds = %23
  store i8 0, ptr @H5P_init_g, align 1, !tbaa !16
  %27 = load i64, ptr @H5E_FUNC_g, align 8, !tbaa !3
  %28 = load i64, ptr @H5E_CANTINIT_g, align 8, !tbaa !3
  %29 = tail call i32 (ptr, ptr, i32, i64, i64, ptr, ...) @H5E_printf_stack(ptr noundef nonnull @.str.2, ptr noundef nonnull @__func__.H5Pset_family_offset, i32 noundef 1998, i64 noundef %27, i64 noundef %28, ptr noundef nonnull @.str.16) #15
  br label %.thread23

30:                                               ; preds = %17, %23
  %31 = call i32 @H5CX_push(ptr noundef nonnull %4) #15
  %32 = icmp slt i32 %31, 0
  br i1 %32, label %33, label %37, !prof !28

33:                                               ; preds = %30
  %34 = load i64, ptr @H5E_FUNC_g, align 8, !tbaa !3
  %35 = load i64, ptr @H5E_CANTSET_g, align 8, !tbaa !3
  %36 = call i32 (ptr, ptr, i32, i64, i64, ptr, ...) @H5E_printf_stack(ptr noundef nonnull @.str.2, ptr noundef nonnull @__func__.H5Pset_family_offset, i32 noundef 1998, i64 noundef %34, i64 noundef %35, ptr noundef nonnull @.str.17) #15
  br label %.thread23

37:                                               ; preds = %30
  %38 = call i32 @H5E_clear_stack() #15
  %39 = icmp eq i64 %0, 0
  br i1 %39, label %40, label %44, !prof !30

40:                                               ; preds = %37
  %41 = load i64, ptr @H5E_ARGS_g, align 8, !tbaa !3
  %42 = load i64, ptr @H5E_BADVALUE_g, align 8, !tbaa !3
  %43 = call i32 (ptr, ptr, i32, i64, i64, ptr, ...) @H5E_printf_stack(ptr noundef nonnull @.str.2, ptr noundef nonnull @__func__.H5Pset_family_offset, i32 noundef 2002, i64 noundef %41, i64 noundef %42, ptr noundef nonnull @.str.41) #15
  br label %.thread29

44:                                               ; preds = %37
  %45 = load i64, ptr @H5P_CLS_FILE_ACCESS_ID_g, align 8, !tbaa !3
  %46 = call ptr @H5P_object_verify(i64 noundef %0, i64 noundef %45, i1 noundef zeroext false) #15
  %47 = icmp eq ptr %46, null
  br i1 %47, label %48, label %52, !prof !30

48:                                               ; preds = %44
  %49 = load i64, ptr @H5E_ID_g, align 8, !tbaa !3
  %50 = load i64, ptr @H5E_BADID_g, align 8, !tbaa !3
  %51 = call i32 (ptr, ptr, i32, i64, i64, ptr, ...) @H5E_printf_stack(ptr noundef nonnull @.str.2, ptr noundef nonnull @__func__.H5Pset_family_offset, i32 noundef 2004, i64 noundef %49, i64 noundef %50, ptr noundef nonnull @.str.19) #15
  br label %.thread29

52:                                               ; preds = %44
  %53 = call i32 @H5P_set(ptr noundef nonnull %46, ptr noundef nonnull @.str.42, ptr noundef nonnull %3) #15
  %54 = icmp slt i32 %53, 0
  br i1 %54, label %55, label %60, !prof !30

55:                                               ; preds = %52
  %56 = load i64, ptr @H5E_PLIST_g, align 8, !tbaa !3
  %57 = load i64, ptr @H5E_CANTSET_g, align 8, !tbaa !3
  %58 = call i32 (ptr, ptr, i32, i64, i64, ptr, ...) @H5E_printf_stack(ptr noundef nonnull @.str.2, ptr noundef nonnull @__func__.H5Pset_family_offset, i32 noundef 2008, i64 noundef %56, i64 noundef %57, ptr noundef nonnull @.str.43) #15
  br label %.thread29

.thread29:                                        ; preds = %55, %48, %40
  %59 = call i32 @H5CX_pop(i1 noundef zeroext true) #15
  br label %.thread23

60:                                               ; preds = %52
  %61 = call i32 @H5CX_pop(i1 noundef zeroext true) #15
  br label %63

.thread23:                                        ; preds = %33, %26, %13, %.thread29
  %62 = call i32 @H5E_dump_api_stack() #15
  br label %63

63:                                               ; preds = %60, %.thread23
  %.0121826 = phi i32 [ -1, %.thread23 ], [ 0, %60 ]
  call void @llvm.lifetime.end.p0(i64 480, ptr nonnull %4) #15
  ret i32 %.0121826
}